target datalayout = "e-m:e-p270:32:32-p271:32:32-p272:64:64-i64:64-i128:128-f80:128-n8:16:32:64-S128"
target triple = "x86_64-unknown-linux-gnu"

%"class.node::MemoryRetainer" = type { ptr }
%"class.node::quic::Store" = type { %"class.node::MemoryRetainer", %"class.std::shared_ptr", i64, i64 }
%"class.std::shared_ptr" = type { %"class.std::__shared_ptr" }
%"class.std::__shared_ptr" = type { ptr, %"class.std::__shared_count" }
%"class.std::__shared_count" = type { ptr }
%struct.ngtcp2_vec = type { ptr, i64 }

; Function Attrs: mustprogress nounwind uwtable
define linkonce_odr dso_local noundef ptr @_ZNKSt12__shared_ptrIN2v812BackingStoreELN9__gnu_cxx12_Lock_policyE2EE3getEv(ptr noundef nonnull align 8 dereferenceable(16) %this) #4 comdat align 2 {
entry:
  %this.addr = alloca ptr, align 8
  store ptr %this, ptr %this.addr, align 8
  %this1 = load ptr, ptr %this.addr, align 8
  %_M_ptr = getelementptr inbounds %"class.std::__shared_ptr", ptr %this1, i32 0, i32 0
  %0 = load ptr, ptr %_M_ptr, align 8
  ret ptr %0
}

; Function Attrs: mustprogress nounwind uwtable
define linkonce_odr dso_local noundef ptr @_ZNKSt19__shared_ptr_accessIN2v812BackingStoreELN9__gnu_cxx12_Lock_policyE2ELb0ELb0EE6_M_getEv(ptr noundef nonnull align 1 dereferenceable(1) %this) #4 comdat align 2 {
entry:
  %this.addr = alloca ptr, align 8
  store ptr %this, ptr %this.addr, align 8
  %this1 = load ptr, ptr %this.addr, align 8
  %call = call noundef ptr @_ZNKSt12__shared_ptrIN2v812BackingStoreELN9__gnu_cxx12_Lock_policyE2EE3getEv(ptr noundef nonnull align 8 dereferenceable(16) %this1) #3
  ret ptr %call
}

; Function Attrs: mustprogress nounwind uwtable
define linkonce_odr dso_local noundef zeroext i1 @_ZNKSt12__shared_ptrIN2v812BackingStoreELN9__gnu_cxx12_Lock_policyE2EEcvbEv(ptr noundef nonnull align 8 dereferenceable(16) %this) #4 comdat align 2 {
entry:
  %this.addr = alloca ptr, align 8
  store ptr %this, ptr %this.addr, align 8
  %this1 = load ptr, ptr %this.addr, align 8
  %_M_ptr = getelementptr inbounds %"class.std::__shared_ptr", ptr %this1, i32 0, i32 0
  %0 = load ptr, ptr %_M_ptr, align 8
  %cmp = icmp ne ptr %0, null
  ret i1 %cmp
}

; Function Attrs: mustprogress nounwind uwtable
define linkonce_odr dso_local noundef ptr @_ZNKSt19__shared_ptr_accessIN2v812BackingStoreELN9__gnu_cxx12_Lock_policyE2ELb0ELb0EEptEv(ptr noundef nonnull align 1 dereferenceable(1) %this) #4 comdat align 2 {
entry:
  %this.addr = alloca ptr, align 8
  store ptr %this, ptr %this.addr, align 8
  %this1 = load ptr, ptr %this.addr, align 8
  %call = call noundef ptr @_ZNKSt19__shared_ptr_accessIN2v812BackingStoreELN9__gnu_cxx12_Lock_policyE2ELb0ELb0EE6_M_getEv(ptr noundef nonnull align 1 dereferenceable(1) %this1) #3
  ret ptr %call
}

; Function Attrs: mustprogress nounwind uwtable
define linkonce_odr dso_local noundef zeroext i1 @_ZStneIN2v812BackingStoreEEbRKSt10shared_ptrIT_EDn(ptr noundef nonnull align 8 dereferenceable(16) %__a, ptr %0) #4 comdat {
entry:
  %__a.addr = alloca ptr, align 8
  %.addr = alloca ptr, align 8
  store ptr %__a, ptr %__a.addr, align 8
  store ptr %0, ptr %.addr, align 8
  %1 = load ptr, ptr %__a.addr, align 8
  %call = call noundef zeroext i1 @_ZNKSt12__shared_ptrIN2v812BackingStoreELN9__gnu_cxx12_Lock_policyE2EEcvbEv(ptr noundef nonnull align 8 dereferenceable(16) %1) #3
  ret i1 %call
}

; Function Attrs: mustprogress nounwind uwtable
define linkonce_odr dso_local { ptr, i64 } @_ZNK4node4quic5Store7convertI10ngtcp2_vechEET_v(ptr noundef nonnull align 8 dereferenceable(40) %this) #4 comdat align 2 {
entry:
  %retval = alloca %struct.ngtcp2_vec, align 8
  %this.addr = alloca ptr, align 8
  store ptr %this, ptr %this.addr, align 8
  %this1 = load ptr, ptr %this.addr, align 8
  %store_ = getelementptr inbounds %"class.node::quic::Store", ptr %this1, i32 0, i32 1
  %call = call noundef zeroext i1 @_ZStneIN2v812BackingStoreEEbRKSt10shared_ptrIT_EDn(ptr noundef nonnull align 8 dereferenceable(16) %store_, ptr null) #3
  br i1 %call, label %cond.true, label %cond.false

cond.true:                                        ; preds = %entry
  %store_2 = getelementptr inbounds %"class.node::quic::Store", ptr %this1, i32 0, i32 1
  %call3 = call noundef ptr @_ZNKSt19__shared_ptr_accessIN2v812BackingStoreELN9__gnu_cxx12_Lock_policyE2ELb0ELb0EEptEv(ptr noundef nonnull align 1 dereferenceable(1) %store_2) #3
  %call4 = call noundef ptr @_ZNK2v812BackingStore4DataEv(ptr noundef nonnull align 1 dereferenceable(1) %call3)
  %offset_ = getelementptr inbounds %"class.node::quic::Store", ptr %this1, i32 0, i32 3
  %0 = load i64, ptr %offset_, align 8
  %add.ptr = getelementptr inbounds i8, ptr %call4, i64 %0
  br label %cond.end

cond.false:                                       ; preds = %entry
  br label %cond.end

cond.end:                                         ; preds = %cond.false, %cond.true
  %cond = phi ptr [ %add.ptr, %cond.true ], [ null, %cond.false ]
  %base = getelementptr inbounds %struct.ngtcp2_vec, ptr %retval, i32 0, i32 0
  store ptr %cond, ptr %base, align 8
  %length_ = getelementptr inbounds %"class.node::quic::Store", ptr %this1, i32 0, i32 2
  %1 = load i64, ptr %length_, align 8
  %len = getelementptr inbounds %struct.ngtcp2_vec, ptr %retval, i32 0, i32 1
  store i64 %1, ptr %len, align 8
  %2 = load { ptr, i64 }, ptr %retval, align 8
  ret { ptr, i64 } %2
}

; Function Attrs: mustprogress nounwind uwtable
define dso_local { ptr, i64 } @_ZNK4node4quic5Storecv10ngtcp2_vecEv(ptr noundef nonnull align 8 dereferenceable(40) %this) #4 align 2 {
entry:
  %retval = alloca %struct.ngtcp2_vec, align 8
  %this.addr = alloca ptr, align 8
  store ptr %this, ptr %this.addr, align 8
  %this1 = load ptr, ptr %this.addr, align 8
  %call = call { ptr, i64 } @_ZNK4node4quic5Store7convertI10ngtcp2_vechEET_v(ptr noundef nonnull align 8 dereferenceable(40) %this1)
  %0 = getelementptr inbounds { ptr, i64 }, ptr %retval, i32 0, i32 0
  %1 = extractvalue { ptr, i64 } %call, 0
  store ptr %1, ptr %0, align 8
  %2 = getelementptr inbounds { ptr, i64 }, ptr %retval, i32 0, i32 1
  %3 = extractvalue { ptr, i64 } %call, 1
  store i64 %3, ptr %2, align 8
  %4 = load { ptr, i64 }, ptr %retval, align 8
  ret { ptr, i64 } %4
}